target datalayout = "e-m:e-p270:32:32-p271:32:32-p272:64:64-i64:64-i128:128-f80:128-n8:16:32:64-S128"
target triple = "x86_64-unknown-linux-gnu"

%"struct.node::AssertionInfo" = type { ptr, ptr, ptr }
%"class.v8::IndirectHandleBase" = type { ptr }
%"class.v8::Local.24" = type { %"class.v8::LocalBase.25" }
%"class.v8::LocalBase.25" = type { %"class.v8::IndirectHandleBase" }
%"class.v8::LocalBase.340" = type { %"class.v8::IndirectHandleBase" }
%"class.v8::Local.339" = type { %"class.v8::LocalBase.340" }
%"class.v8::FunctionCallbackInfo" = type <{ ptr, ptr, i32, [4 x i8] }>
%"class.v8::String::Utf8Value" = type <{ ptr, i32, [4 x i8] }>

@_ZZN4node8v8_utils18SetFlagsFromStringERKN2v820FunctionCallbackInfoINS1_5ValueEEEE4args = internal constant %"struct.node::AssertionInfo" { ptr @.str.16, ptr @.str.17, ptr @.str.18 }, align 8

; Function Attrs: mustprogress nounwind uwtable
define linkonce_odr dso_local noundef i32 @_ZNK2v86String9Utf8Value6lengthEv(ptr noundef nonnull align 8 dereferenceable(12) %this) #4 comdat align 2 {
entry:
  %this.addr = alloca ptr, align 8
  store ptr %this, ptr %this.addr, align 8
  %this1 = load ptr, ptr %this.addr, align 8
  %length_ = getelementptr inbounds %"class.v8::String::Utf8Value", ptr %this1, i32 0, i32 1
  %0 = load i32, ptr %length_, align 8
  ret i32 %0
}

; Function Attrs: mustprogress nounwind uwtable
define linkonce_odr dso_local noundef ptr @_ZN2v86String9Utf8ValuedeEv(ptr noundef nonnull align 8 dereferenceable(12) %this) #4 comdat align 2 {
entry:
  %this.addr = alloca ptr, align 8
  store ptr %this, ptr %this.addr, align 8
  %this1 = load ptr, ptr %this.addr, align 8
  %str_ = getelementptr inbounds %"class.v8::String::Utf8Value", ptr %this1, i32 0, i32 0
  %0 = load ptr, ptr %str_, align 8
  ret ptr %0
}

; Function Attrs: mustprogress nounwind uwtable
define dso_local void @_ZN4node8v8_utils18SetFlagsFromStringERKN2v820FunctionCallbackInfoINS1_5ValueEEE(ptr noundef nonnull align 8 dereferenceable(20) %args) #4 {
entry:
  %slot.addr.i146 = alloca ptr, align 8
  %this.addr.i.i142 = alloca ptr, align 8
  %this.addr.i143 = alloca ptr, align 8
  %this.addr.i.i136 = alloca ptr, align 8
  %location.addr.i.i137 = alloca ptr, align 8
  %this.addr.i138 = alloca ptr, align 8
  %location.addr.i139 = alloca ptr, align 8
  %this.addr.i.i130 = alloca ptr, align 8
  %location.addr.i.i131 = alloca ptr, align 8
  %this.addr.i132 = alloca ptr, align 8
  %location.addr.i133 = alloca ptr, align 8
  %this.addr.i127 = alloca ptr, align 8
  %other.addr.i128 = alloca ptr, align 8
  %this.addr.i124 = alloca ptr, align 8
  %other.addr.i125 = alloca ptr, align 8
  %retval.i122 = alloca %"class.v8::LocalBase.25", align 8
  %slot.addr.i123 = alloca ptr, align 8
  %retval.i120 = alloca %"class.v8::LocalBase.25", align 8
  %slot.addr.i121 = alloca ptr, align 8
  %this.addr.i117 = alloca ptr, align 8
  %other.addr.i118 = alloca ptr, align 8
  %this.addr.i114 = alloca ptr, align 8
  %other.addr.i115 = alloca ptr, align 8
  %this.addr.i.i108 = alloca ptr, align 8
  %location.addr.i.i109 = alloca ptr, align 8
  %this.addr.i110 = alloca ptr, align 8
  %location.addr.i111 = alloca ptr, align 8
  %this.addr.i.i = alloca ptr, align 8
  %location.addr.i.i = alloca ptr, align 8
  %this.addr.i106 = alloca ptr, align 8
  %location.addr.i = alloca ptr, align 8
  %this.addr.i103 = alloca ptr, align 8
  %other.addr.i104 = alloca ptr, align 8
  %this.addr.i101 = alloca ptr, align 8
  %other.addr.i = alloca ptr, align 8
  %retval.i99 = alloca %"class.v8::LocalBase.340", align 8
  %slot.addr.i100 = alloca ptr, align 8
  %retval.i97 = alloca %"class.v8::LocalBase.340", align 8
  %slot.addr.i98 = alloca ptr, align 8
  %retval.i93 = alloca %"class.v8::Local.339", align 8
  %slot.addr.i94 = alloca ptr, align 8
  %ref.tmp.i95 = alloca %"class.v8::LocalBase.340", align 8
  %retval.i90 = alloca %"class.v8::Local.339", align 8
  %slot.addr.i91 = alloca ptr, align 8
  %ref.tmp.i92 = alloca %"class.v8::LocalBase.340", align 8
  %isolate.addr.i83 = alloca ptr, align 8
  %index.addr.i84 = alloca i32, align 4
  %addr.i85 = alloca i64, align 8
  %isolate.addr.i79 = alloca ptr, align 8
  %index.addr.i = alloca i32, align 4
  %addr.i80 = alloca i64, align 8
  %isolate.addr.i78 = alloca ptr, align 8
  %isolate.addr.i77 = alloca ptr, align 8
  %retval.i73 = alloca %"class.v8::Local.24", align 8
  %slot.addr.i74 = alloca ptr, align 8
  %ref.tmp.i75 = alloca %"class.v8::LocalBase.25", align 8
  %retval.i71 = alloca %"class.v8::Local.24", align 8
  %slot.addr.i = alloca ptr, align 8
  %ref.tmp.i = alloca %"class.v8::LocalBase.25", align 8
  %that.i68 = alloca %"class.v8::Local.339", align 8
  %this.addr.i69 = alloca ptr, align 8
  %that.i = alloca %"class.v8::Local.339", align 8
  %this.addr.i67 = alloca ptr, align 8
  %retval.i62 = alloca %"class.v8::Local.339", align 8
  %isolate.addr.i63 = alloca ptr, align 8
  %slot.i64 = alloca ptr, align 8
  %retval.i61 = alloca %"class.v8::Local.339", align 8
  %isolate.addr.i = alloca ptr, align 8
  %slot.i = alloca ptr, align 8
  %heap_object_ptr.addr.i = alloca i64, align 8
  %offset.addr.i = alloca i32, align 4
  %addr.i = alloca i64, align 8
  %heap_object_ptr.addr.i2.i = alloca i64, align 8
  %offset.addr.i3.i = alloca i32, align 4
  %addr.i.i = alloca i64, align 8
  %heap_object_ptr.addr.i.i = alloca i64, align 8
  %offset.addr.i.i = alloca i32, align 4
  %obj.addr.i = alloca i64, align 8
  %map.i = alloca i64, align 8
  %value.addr.i58 = alloca i64, align 8
  %value.addr.i = alloca ptr, align 8
  %retval.i50 = alloca i1, align 1
  %this.addr.i51 = alloca ptr, align 8
  %obj.i = alloca i64, align 8
  %this.addr.i48 = alloca ptr, align 8
  %this.addr.i45 = alloca ptr, align 8
  %this.addr.i42 = alloca ptr, align 8
  %this.addr.i40 = alloca ptr, align 8
  %this.addr.i37 = alloca ptr, align 8
  %retval.i19 = alloca %"class.v8::Local.24", align 8
  %this.addr.i20 = alloca ptr, align 8
  %i.addr.i21 = alloca i32, align 4
  %agg.tmp.i22 = alloca %"class.v8::Local.339", align 8
  %retval.i = alloca %"class.v8::Local.24", align 8
  %this.addr.i = alloca ptr, align 8
  %i.addr.i = alloca i32, align 4
  %agg.tmp.i = alloca %"class.v8::Local.339", align 8
  %args.addr = alloca ptr, align 8
  %ref.tmp = alloca %"class.v8::Local.24", align 8
  %flags = alloca %"class.v8::String::Utf8Value", align 8
  %agg.tmp = alloca %"class.v8::Local.24", align 8
  store ptr %args, ptr %args.addr, align 8
  br label %do.body

do.body:                                          ; preds = %entry
  %0 = load ptr, ptr %args.addr, align 8
  store ptr %0, ptr %this.addr.i20, align 8
  store i32 0, ptr %i.addr.i21, align 4
  %this1.i23 = load ptr, ptr %this.addr.i20, align 8
  %1 = load i32, ptr %i.addr.i21, align 4
  %cmp.i24 = icmp slt i32 %1, 0
  br i1 %cmp.i24, label %if.then.i33, label %lor.lhs.false.i25

lor.lhs.false.i25:                                ; preds = %do.body
  %length_.i26 = getelementptr inbounds %"class.v8::FunctionCallbackInfo", ptr %this1.i23, i32 0, i32 2
  %2 = load i32, ptr %length_.i26, align 8
  %3 = load i32, ptr %i.addr.i21, align 4
  %cmp2.i27 = icmp sle i32 %2, %3
  br i1 %cmp2.i27, label %if.then.i33, label %if.end.i28

if.then.i33:                                      ; preds = %lor.lhs.false.i25, %do.body
  store ptr %this1.i23, ptr %this.addr.i40, align 8
  %this1.i41 = load ptr, ptr %this.addr.i40, align 8
  %4 = load ptr, ptr %this1.i41, align 8
  %arrayidx.i = getelementptr inbounds i64, ptr %4, i64 1
  %5 = load ptr, ptr %arrayidx.i, align 8
  store ptr %5, ptr %isolate.addr.i, align 8
  %6 = load ptr, ptr %isolate.addr.i, align 8
  store ptr %6, ptr %isolate.addr.i78, align 8
  %7 = load ptr, ptr %isolate.addr.i, align 8
  store ptr %7, ptr %isolate.addr.i83, align 8
  store i32 4, ptr %index.addr.i84, align 4
  %8 = load ptr, ptr %isolate.addr.i83, align 8
  %9 = ptrtoint ptr %8 to i64
  %add.i86 = add i64 %9, 576
  %10 = load i32, ptr %index.addr.i84, align 4
  %mul.i87 = mul nsw i32 %10, 8
  %conv.i88 = sext i32 %mul.i87 to i64
  %add1.i89 = add i64 %add.i86, %conv.i88
  store i64 %add1.i89, ptr %addr.i85, align 8
  %11 = load i64, ptr %addr.i85, align 8
  %12 = inttoptr i64 %11 to ptr
  store ptr %12, ptr %slot.i, align 8
  %13 = load ptr, ptr %slot.i, align 8
  store ptr %13, ptr %slot.addr.i94, align 8
  %14 = load ptr, ptr %slot.addr.i94, align 8
  store ptr %14, ptr %slot.addr.i98, align 8
  %15 = load ptr, ptr %slot.addr.i98, align 8
  store ptr %retval.i97, ptr %this.addr.i110, align 8
  store ptr %15, ptr %location.addr.i111, align 8
  %this1.i112 = load ptr, ptr %this.addr.i110, align 8
  %16 = load ptr, ptr %location.addr.i111, align 8
  store ptr %this1.i112, ptr %this.addr.i.i108, align 8
  store ptr %16, ptr %location.addr.i.i109, align 8
  %this1.i.i113 = load ptr, ptr %this.addr.i.i108, align 8
  %17 = load ptr, ptr %location.addr.i.i109, align 8
  store ptr %17, ptr %this1.i.i113, align 8
  %18 = load ptr, ptr %retval.i97, align 8
  store ptr %18, ptr %ref.tmp.i95, align 8
  store ptr %retval.i93, ptr %this.addr.i101, align 8
  store ptr %ref.tmp.i95, ptr %other.addr.i, align 8
  %this1.i102 = load ptr, ptr %this.addr.i101, align 8
  %19 = load ptr, ptr %other.addr.i, align 8
  call void @llvm.memcpy.p0.p0.i64(ptr align 8 %this1.i102, ptr align 8 %19, i64 8, i1 false)
  %20 = load ptr, ptr %retval.i93, align 8
  store ptr %20, ptr %retval.i61, align 8
  %21 = load ptr, ptr %retval.i61, align 8
  store ptr %21, ptr %agg.tmp.i22, align 8
  %22 = load ptr, ptr %agg.tmp.i22, align 8
  store ptr %22, ptr %that.i, align 8
  store ptr %retval.i19, ptr %this.addr.i67, align 8
  %this3.i = load ptr, ptr %this.addr.i67, align 8
  store ptr %this3.i, ptr %this.addr.i117, align 8
  store ptr %that.i, ptr %other.addr.i118, align 8
  %this1.i119 = load ptr, ptr %this.addr.i117, align 8
  %23 = load ptr, ptr %other.addr.i118, align 8
  call void @llvm.memcpy.p0.p0.i64(ptr align 8 %this1.i119, ptr align 8 %23, i64 8, i1 false)
  br label %_ZNK2v820FunctionCallbackInfoINS_5ValueEEixEi.exit36

if.end.i28:                                       ; preds = %lor.lhs.false.i25
  %values_.i29 = getelementptr inbounds %"class.v8::FunctionCallbackInfo", ptr %this1.i23, i32 0, i32 1
  %24 = load ptr, ptr %values_.i29, align 8
  %25 = load i32, ptr %i.addr.i21, align 4
  %idx.ext.i30 = sext i32 %25 to i64
  %add.ptr.i31 = getelementptr inbounds i64, ptr %24, i64 %idx.ext.i30
  store ptr %add.ptr.i31, ptr %slot.addr.i, align 8
  %26 = load ptr, ptr %slot.addr.i, align 8
  store ptr %26, ptr %slot.addr.i123, align 8
  %27 = load ptr, ptr %slot.addr.i123, align 8
  store ptr %retval.i122, ptr %this.addr.i132, align 8
  store ptr %27, ptr %location.addr.i133, align 8
  %this1.i134 = load ptr, ptr %this.addr.i132, align 8
  %28 = load ptr, ptr %location.addr.i133, align 8
  store ptr %this1.i134, ptr %this.addr.i.i130, align 8
  store ptr %28, ptr %location.addr.i.i131, align 8
  %this1.i.i135 = load ptr, ptr %this.addr.i.i130, align 8
  %29 = load ptr, ptr %location.addr.i.i131, align 8
  store ptr %29, ptr %this1.i.i135, align 8
  %30 = load ptr, ptr %retval.i122, align 8
  store ptr %30, ptr %ref.tmp.i, align 8
  store ptr %retval.i71, ptr %this.addr.i127, align 8
  store ptr %ref.tmp.i, ptr %other.addr.i128, align 8
  %this1.i129 = load ptr, ptr %this.addr.i127, align 8
  %31 = load ptr, ptr %other.addr.i128, align 8
  call void @llvm.memcpy.p0.p0.i64(ptr align 8 %this1.i129, ptr align 8 %31, i64 8, i1 false)
  %32 = load ptr, ptr %retval.i71, align 8
  store ptr %32, ptr %retval.i19, align 8
  br label %_ZNK2v820FunctionCallbackInfoINS_5ValueEEixEi.exit36

_ZNK2v820FunctionCallbackInfoINS_5ValueEEixEi.exit36: ; preds = %if.end.i28, %if.then.i33
  %33 = load ptr, ptr %retval.i19, align 8
  %coerce.dive = getelementptr inbounds %"class.v8::Local.24", ptr %ref.tmp, i32 0, i32 0
  %coerce.dive1 = getelementptr inbounds %"class.v8::LocalBase.25", ptr %coerce.dive, i32 0, i32 0
  %coerce.dive2 = getelementptr inbounds %"class.v8::IndirectHandleBase", ptr %coerce.dive1, i32 0, i32 0
  store ptr %33, ptr %coerce.dive2, align 8
  store ptr %ref.tmp, ptr %this.addr.i37, align 8
  %this1.i38 = load ptr, ptr %this.addr.i37, align 8
  store ptr %this1.i38, ptr %this.addr.i143, align 8
  %this1.i144 = load ptr, ptr %this.addr.i143, align 8
  store ptr %this1.i144, ptr %this.addr.i.i142, align 8
  %this1.i.i145 = load ptr, ptr %this.addr.i.i142, align 8
  %34 = load ptr, ptr %this1.i.i145, align 8
  store ptr %34, ptr %slot.addr.i146, align 8
  %35 = load ptr, ptr %slot.addr.i146, align 8
  store ptr %35, ptr %this.addr.i48, align 8
  %this1.i49 = load ptr, ptr %this.addr.i48, align 8
  store ptr %this1.i49, ptr %this.addr.i51, align 8
  %this1.i52 = load ptr, ptr %this.addr.i51, align 8
  store ptr %this1.i52, ptr %value.addr.i, align 8
  %36 = load ptr, ptr %value.addr.i, align 8
  %37 = load i64, ptr %36, align 8
  store i64 %37, ptr %obj.i, align 8
  %38 = load i64, ptr %obj.i, align 8
  store i64 %38, ptr %value.addr.i58, align 8
  %39 = load i64, ptr %value.addr.i58, align 8
  %and.i = and i64 %39, 3
  %cmp.i59 = icmp eq i64 %and.i, 1
  br i1 %cmp.i59, label %if.end.i55, label %if.then.i54

if.then.i54:                                      ; preds = %_ZNK2v820FunctionCallbackInfoINS_5ValueEEixEi.exit36
  store i1 false, ptr %retval.i50, align 1
  br label %_ZNK2v85Value13QuickIsStringEv.exit

if.end.i55:                                       ; preds = %_ZNK2v820FunctionCallbackInfoINS_5ValueEEixEi.exit36
  %40 = load i64, ptr %obj.i, align 8
  store i64 %40, ptr %obj.addr.i, align 8
  %41 = load i64, ptr %obj.addr.i, align 8
  store i64 %41, ptr %heap_object_ptr.addr.i.i, align 8
  store i32 0, ptr %offset.addr.i.i, align 4
  %42 = load i64, ptr %heap_object_ptr.addr.i.i, align 8
  %43 = load i32, ptr %offset.addr.i.i, align 4
  store i64 %42, ptr %heap_object_ptr.addr.i2.i, align 8
  store i32 %43, ptr %offset.addr.i3.i, align 4
  %44 = load i64, ptr %heap_object_ptr.addr.i2.i, align 8
  %45 = load i32, ptr %offset.addr.i3.i, align 4
  %conv.i.i = sext i32 %45 to i64
  %add.i.i = add i64 %44, %conv.i.i
  %sub.i.i = sub i64 %add.i.i, 1
  store i64 %sub.i.i, ptr %addr.i.i, align 8
  %46 = load i64, ptr %addr.i.i, align 8
  %47 = inttoptr i64 %46 to ptr
  %48 = load i64, ptr %47, align 8
  store i64 %48, ptr %map.i, align 8
  %49 = load i64, ptr %map.i, align 8
  store i64 %49, ptr %heap_object_ptr.addr.i, align 8
  store i32 12, ptr %offset.addr.i, align 4
  %50 = load i64, ptr %heap_object_ptr.addr.i, align 8
  %51 = load i32, ptr %offset.addr.i, align 4
  %conv.i60 = sext i32 %51 to i64
  %add.i = add i64 %50, %conv.i60
  %sub.i = sub i64 %add.i, 1
  store i64 %sub.i, ptr %addr.i, align 8
  %52 = load i64, ptr %addr.i, align 8
  %53 = inttoptr i64 %52 to ptr
  %54 = load i16, ptr %53, align 2
  %conv.i = zext i16 %54 to i32
  %cmp.i57 = icmp slt i32 %conv.i, 128
  store i1 %cmp.i57, ptr %retval.i50, align 1
  br label %_ZNK2v85Value13QuickIsStringEv.exit

_ZNK2v85Value13QuickIsStringEv.exit:              ; preds = %if.end.i55, %if.then.i54
  %55 = load i1, ptr %retval.i50, align 1
  %lnot = xor i1 %55, true
  %lnot5 = xor i1 %lnot, true
  %lnot6 = xor i1 %lnot5, true
  br i1 %lnot6, label %if.then, label %if.end

if.then:                                          ; preds = %_ZNK2v85Value13QuickIsStringEv.exit
  br label %do.body7

do.body7:                                         ; preds = %if.then
  call void @_ZN4node6AssertERKNS_13AssertionInfoE(ptr noundef nonnull align 8 dereferenceable(24) @_ZZN4node8v8_utils18SetFlagsFromStringERKN2v820FunctionCallbackInfoINS1_5ValueEEEE4args)
  call void @abort() #13
  unreachable

do.end:                                           ; No predecessors!
  br label %if.end

if.end:                                           ; preds = %do.end, %_ZNK2v85Value13QuickIsStringEv.exit
  br label %do.end8

do.end8:                                          ; preds = %if.end
  %56 = load ptr, ptr %args.addr, align 8
  store ptr %56, ptr %this.addr.i45, align 8
  %this1.i46 = load ptr, ptr %this.addr.i45, align 8
  %57 = load ptr, ptr %this1.i46, align 8
  %arrayidx.i47 = getelementptr inbounds i64, ptr %57, i64 1
  %58 = load ptr, ptr %arrayidx.i47, align 8
  %59 = load ptr, ptr %args.addr, align 8
  store ptr %59, ptr %this.addr.i, align 8
  store i32 0, ptr %i.addr.i, align 4
  %this1.i = load ptr, ptr %this.addr.i, align 8
  %60 = load i32, ptr %i.addr.i, align 4
  %cmp.i = icmp slt i32 %60, 0
  br i1 %cmp.i, label %if.then.i, label %lor.lhs.false.i

lor.lhs.false.i:                                  ; preds = %do.end8
  %length_.i = getelementptr inbounds %"class.v8::FunctionCallbackInfo", ptr %this1.i, i32 0, i32 2
  %61 = load i32, ptr %length_.i, align 8
  %62 = load i32, ptr %i.addr.i, align 4
  %cmp2.i = icmp sle i32 %61, %62
  br i1 %cmp2.i, label %if.then.i, label %if.end.i

if.then.i:                                        ; preds = %lor.lhs.false.i, %do.end8
  store ptr %this1.i, ptr %this.addr.i42, align 8
  %this1.i43 = load ptr, ptr %this.addr.i42, align 8
  %63 = load ptr, ptr %this1.i43, align 8
  %arrayidx.i44 = getelementptr inbounds i64, ptr %63, i64 1
  %64 = load ptr, ptr %arrayidx.i44, align 8
  store ptr %64, ptr %isolate.addr.i63, align 8
  %65 = load ptr, ptr %isolate.addr.i63, align 8
  store ptr %65, ptr %isolate.addr.i77, align 8
  %66 = load ptr, ptr %isolate.addr.i63, align 8
  store ptr %66, ptr %isolate.addr.i79, align 8
  store i32 4, ptr %index.addr.i, align 4
  %67 = load ptr, ptr %isolate.addr.i79, align 8
  %68 = ptrtoint ptr %67 to i64
  %add.i81 = add i64 %68, 576
  %69 = load i32, ptr %index.addr.i, align 4
  %mul.i = mul nsw i32 %69, 8
  %conv.i82 = sext i32 %mul.i to i64
  %add1.i = add i64 %add.i81, %conv.i82
  store i64 %add1.i, ptr %addr.i80, align 8
  %70 = load i64, ptr %addr.i80, align 8
  %71 = inttoptr i64 %70 to ptr
  store ptr %71, ptr %slot.i64, align 8
  %72 = load ptr, ptr %slot.i64, align 8
  store ptr %72, ptr %slot.addr.i91, align 8
  %73 = load ptr, ptr %slot.addr.i91, align 8
  store ptr %73, ptr %slot.addr.i100, align 8
  %74 = load ptr, ptr %slot.addr.i100, align 8
  store ptr %retval.i99, ptr %this.addr.i106, align 8
  store ptr %74, ptr %location.addr.i, align 8
  %this1.i107 = load ptr, ptr %this.addr.i106, align 8
  %75 = load ptr, ptr %location.addr.i, align 8
  store ptr %this1.i107, ptr %this.addr.i.i, align 8
  store ptr %75, ptr %location.addr.i.i, align 8
  %this1.i.i = load ptr, ptr %this.addr.i.i, align 8
  %76 = load ptr, ptr %location.addr.i.i, align 8
  store ptr %76, ptr %this1.i.i, align 8
  %77 = load ptr, ptr %retval.i99, align 8
  store ptr %77, ptr %ref.tmp.i92, align 8
  store ptr %retval.i90, ptr %this.addr.i103, align 8
  store ptr %ref.tmp.i92, ptr %other.addr.i104, align 8
  %this1.i105 = load ptr, ptr %this.addr.i103, align 8
  %78 = load ptr, ptr %other.addr.i104, align 8
  call void @llvm.memcpy.p0.p0.i64(ptr align 8 %this1.i105, ptr align 8 %78, i64 8, i1 false)
  %79 = load ptr, ptr %retval.i90, align 8
  store ptr %79, ptr %retval.i62, align 8
  %80 = load ptr, ptr %retval.i62, align 8
  store ptr %80, ptr %agg.tmp.i, align 8
  %81 = load ptr, ptr %agg.tmp.i, align 8
  store ptr %81, ptr %that.i68, align 8
  store ptr %retval.i, ptr %this.addr.i69, align 8
  %this3.i70 = load ptr, ptr %this.addr.i69, align 8
  store ptr %this3.i70, ptr %this.addr.i114, align 8
  store ptr %that.i68, ptr %other.addr.i115, align 8
  %this1.i116 = load ptr, ptr %this.addr.i114, align 8
  %82 = load ptr, ptr %other.addr.i115, align 8
  call void @llvm.memcpy.p0.p0.i64(ptr align 8 %this1.i116, ptr align 8 %82, i64 8, i1 false)
  br label %_ZNK2v820FunctionCallbackInfoINS_5ValueEEixEi.exit

if.end.i:                                         ; preds = %lor.lhs.false.i
  %values_.i = getelementptr inbounds %"class.v8::FunctionCallbackInfo", ptr %this1.i, i32 0, i32 1
  %83 = load ptr, ptr %values_.i, align 8
  %84 = load i32, ptr %i.addr.i, align 4
  %idx.ext.i = sext i32 %84 to i64
  %add.ptr.i = getelementptr inbounds i64, ptr %83, i64 %idx.ext.i
  store ptr %add.ptr.i, ptr %slot.addr.i74, align 8
  %85 = load ptr, ptr %slot.addr.i74, align 8
  store ptr %85, ptr %slot.addr.i121, align 8
  %86 = load ptr, ptr %slot.addr.i121, align 8
  store ptr %retval.i120, ptr %this.addr.i138, align 8
  store ptr %86, ptr %location.addr.i139, align 8
  %this1.i140 = load ptr, ptr %this.addr.i138, align 8
  %87 = load ptr, ptr %location.addr.i139, align 8
  store ptr %this1.i140, ptr %this.addr.i.i136, align 8
  store ptr %87, ptr %location.addr.i.i137, align 8
  %this1.i.i141 = load ptr, ptr %this.addr.i.i136, align 8
  %88 = load ptr, ptr %location.addr.i.i137, align 8
  store ptr %88, ptr %this1.i.i141, align 8
  %89 = load ptr, ptr %retval.i120, align 8
  store ptr %89, ptr %ref.tmp.i75, align 8
  store ptr %retval.i73, ptr %this.addr.i124, align 8
  store ptr %ref.tmp.i75, ptr %other.addr.i125, align 8
  %this1.i126 = load ptr, ptr %this.addr.i124, align 8
  %90 = load ptr, ptr %other.addr.i125, align 8
  call void @llvm.memcpy.p0.p0.i64(ptr align 8 %this1.i126, ptr align 8 %90, i64 8, i1 false)
  %91 = load ptr, ptr %retval.i73, align 8
  store ptr %91, ptr %retval.i, align 8
  br label %_ZNK2v820FunctionCallbackInfoINS_5ValueEEixEi.exit

_ZNK2v820FunctionCallbackInfoINS_5ValueEEixEi.exit: ; preds = %if.end.i, %if.then.i
  %92 = load ptr, ptr %retval.i, align 8
  %coerce.dive11 = getelementptr inbounds %"class.v8::Local.24", ptr %agg.tmp, i32 0, i32 0
  %coerce.dive12 = getelementptr inbounds %"class.v8::LocalBase.25", ptr %coerce.dive11, i32 0, i32 0
  %coerce.dive13 = getelementptr inbounds %"class.v8::IndirectHandleBase", ptr %coerce.dive12, i32 0, i32 0
  store ptr %92, ptr %coerce.dive13, align 8
  %coerce.dive14 = getelementptr inbounds %"class.v8::Local.24", ptr %agg.tmp, i32 0, i32 0
  %coerce.dive15 = getelementptr inbounds %"class.v8::LocalBase.25", ptr %coerce.dive14, i32 0, i32 0
  %coerce.dive16 = getelementptr inbounds %"class.v8::IndirectHandleBase", ptr %coerce.dive15, i32 0, i32 0
  %93 = load ptr, ptr %coerce.dive16, align 8
  call void @_ZN2v86String9Utf8ValueC1EPNS_7IsolateENS_5LocalINS_5ValueEEE(ptr noundef nonnull align 8 dereferenceable(12) %flags, ptr noundef %58, ptr %93)
  %call17 = call noundef ptr @_ZN2v86String9Utf8ValuedeEv(ptr noundef nonnull align 8 dereferenceable(12) %flags)
  %call18 = call noundef i32 @_ZNK2v86String9Utf8Value6lengthEv(ptr noundef nonnull align 8 dereferenceable(12) %flags)
  %conv = sext i32 %call18 to i64
  call void @_ZN2v82V818SetFlagsFromStringEPKcm(ptr noundef %call17, i64 noundef %conv)
  call void @_ZN2v86String9Utf8ValueD1Ev(ptr noundef nonnull align 8 dereferenceable(12) %flags) #3
  ret void
}