; Function Attrs: mustprogress nounwind uwtable
define dso_local void @_ZN4node8v8_utils18SetFlagsFromStringERKN2v820FunctionCallbackInfoINS1_5ValueEEE(ptr nocapture noundef nonnull readonly align 8 dereferenceable(20) %args) #3 {
entry:
  %flags = alloca %"class.v8::String::Utf8Value", align 8
  %length_.i26 = getelementptr inbounds i8, ptr %args, i64 16
  %0 = load i32, ptr %length_.i26, align 8
  %cmp2.i27 = icmp slt i32 %0, 1
  br i1 %cmp2.i27, label %if.then.i33, label %if.end.i28

if.then.i33:                                      ; preds = %entry
  %1 = load ptr, ptr %args, align 8
  %arrayidx.i = getelementptr inbounds i8, ptr %1, i64 8
  %2 = load ptr, ptr %arrayidx.i, align 8
  %3 = ptrtoint ptr %2 to i64
  %add1.i89 = add i64 %3, 608
  %4 = inttoptr i64 %add1.i89 to ptr
  br label %_ZNK2v820FunctionCallbackInfoINS_5ValueEEixEi.exit36

if.end.i28:                                       ; preds = %entry
  %values_.i29 = getelementptr inbounds i8, ptr %args, i64 8
  %5 = load ptr, ptr %values_.i29, align 8
  br label %_ZNK2v820FunctionCallbackInfoINS_5ValueEEixEi.exit36

_ZNK2v820FunctionCallbackInfoINS_5ValueEEixEi.exit36: ; preds = %if.end.i28, %if.then.i33
  %retval.i19.sroa.0.0 = phi ptr [ %4, %if.then.i33 ], [ %5, %if.end.i28 ]
  %6 = load i64, ptr %retval.i19.sroa.0.0, align 8
  %and.i = and i64 %6, 3
  %cmp.i59 = icmp eq i64 %and.i, 1
  br i1 %cmp.i59, label %if.end.i55, label %do.body7

if.end.i55:                                       ; preds = %_ZNK2v820FunctionCallbackInfoINS_5ValueEEixEi.exit36
  %sub.i.i = add nsw i64 %6, -1
  %7 = inttoptr i64 %sub.i.i to ptr
  %8 = load i64, ptr %7, align 8
  %sub.i = add i64 %8, 11
  %9 = inttoptr i64 %sub.i to ptr
  %10 = load i16, ptr %9, align 2
  %cmp.i57 = icmp ugt i16 %10, 127
  br i1 %cmp.i57, label %do.body7, label %do.end8

do.body7:                                         ; preds = %_ZNK2v820FunctionCallbackInfoINS_5ValueEEixEi.exit36, %if.end.i55
  tail call void @_ZN4node6AssertERKNS_13AssertionInfoE(ptr noundef nonnull align 8 dereferenceable(24) @_ZZN4node8v8_utils18SetFlagsFromStringERKN2v820FunctionCallbackInfoINS1_5ValueEEEE4args) #20
  tail call void @abort() #21
  unreachable

do.end8:                                          ; preds = %if.end.i55
  %11 = load ptr, ptr %args, align 8
  %arrayidx.i47 = getelementptr inbounds i8, ptr %11, i64 8
  %12 = load ptr, ptr %arrayidx.i47, align 8
  %13 = ptrtoint ptr %12 to i64
  %add1.i = add i64 %13, 608
  %14 = inttoptr i64 %add1.i to ptr
  %values_.i = getelementptr inbounds i8, ptr %args, i64 8
  %15 = load ptr, ptr %values_.i, align 8
  %retval.i.sroa.0.0 = select i1 %cmp2.i27, ptr %14, ptr %15
  call void @_ZN2v86String9Utf8ValueC1EPNS_7IsolateENS_5LocalINS_5ValueEEE(ptr noundef nonnull align 8 dereferenceable(12) %flags, ptr noundef %12, ptr %retval.i.sroa.0.0) #20
  %16 = load ptr, ptr %flags, align 8
  %length_.i10 = getelementptr inbounds i8, ptr %flags, i64 8
  %17 = load i32, ptr %length_.i10, align 8
  %conv = sext i32 %17 to i64
  call void @_ZN2v82V818SetFlagsFromStringEPKcm(ptr noundef %16, i64 noundef %conv) #20
  call void @_ZN2v86String9Utf8ValueD1Ev(ptr noundef nonnull align 8 dereferenceable(12) %flags) #20
  ret void
}